target datalayout = "e-m:e-p270:32:32-p271:32:32-p272:64:64-i64:64-i128:128-f80:128-n8:16:32:64-S128"
target triple = "x86_64-pc-linux-gnu"

%"class.icu_77::UnicodeString" = type { %"class.icu_77::Replaceable", %"union.icu_77::UnicodeString::StackBufferOrFields" }
%"class.icu_77::Replaceable" = type { %"class.icu_77::UObject" }
%"class.icu_77::UObject" = type { ptr }
%"union.icu_77::UnicodeString::StackBufferOrFields" = type { %struct.anon.0, [32 x i8] }
%struct.anon.0 = type { i16, i32, i32, ptr }
%struct.anon = type { i16, [27 x i16] }

; Function Attrs: inlinehint mustprogress nounwind uwtable
define linkonce_odr noundef ptr @_ZNK6icu_7713UnicodeString13getArrayStartEv(ptr noundef nonnull align 8 dereferenceable(64) %0) #1 comdat align 2 {
  %2 = alloca ptr, align 8
  store ptr %0, ptr %2, align 8, !tbaa !3
  %3 = load ptr, ptr %2, align 8
  %4 = getelementptr inbounds nuw %"class.icu_77::UnicodeString", ptr %3, i32 0, i32 1
  %5 = getelementptr inbounds nuw %struct.anon.0, ptr %4, i32 0, i32 0
  %6 = load i16, ptr %5, align 8, !tbaa !12
  %7 = sext i16 %6 to i32
  %8 = and i32 %7, 2
  %9 = icmp ne i32 %8, 0
  br i1 %9, label %10, label %14

10:                                               ; preds = %1
  %11 = getelementptr inbounds nuw %"class.icu_77::UnicodeString", ptr %3, i32 0, i32 1
  %12 = getelementptr inbounds nuw %struct.anon, ptr %11, i32 0, i32 1
  %13 = getelementptr inbounds [27 x i16], ptr %12, i64 0, i64 0
  br label %18

14:                                               ; preds = %1
  %15 = getelementptr inbounds nuw %"class.icu_77::UnicodeString", ptr %3, i32 0, i32 1
  %16 = getelementptr inbounds nuw %struct.anon.0, ptr %15, i32 0, i32 3
  %17 = load ptr, ptr %16, align 8, !tbaa !12
  br label %18

18:                                               ; preds = %14, %10
  %19 = phi ptr [ %13, %10 ], [ %17, %14 ]
  ret ptr %19
}

; Function Attrs: inlinehint mustprogress nounwind uwtable
define internal noundef signext i8 @_ZL9U_FAILURE10UErrorCode(i32 noundef %0) #1 {
  %2 = alloca i32, align 4
  store i32 %0, ptr %2, align 4, !tbaa !17
  %3 = load i32, ptr %2, align 4, !tbaa !17
  %4 = icmp sgt i32 %3, 0
  %5 = zext i1 %4 to i8
  ret i8 %5
}

; Function Attrs: mustprogress uwtable
define noundef i32 @_ZNK6icu_7713UnicodeString9doExtractEiiPciP10UConverterR10UErrorCode(ptr noundef nonnull align 8 dereferenceable(64) %0, i32 noundef %1, i32 noundef %2, ptr noundef %3, i32 noundef %4, ptr noundef %5, ptr noundef nonnull align 4 dereferenceable(4) %6) #0 align 2 {
  %8 = alloca i32, align 4
  %9 = alloca ptr, align 8
  %10 = alloca i32, align 4
  %11 = alloca i32, align 4
  %12 = alloca ptr, align 8
  %13 = alloca i32, align 4
  %14 = alloca ptr, align 8
  %15 = alloca ptr, align 8
  %16 = alloca ptr, align 8
  %17 = alloca ptr, align 8
  %18 = alloca ptr, align 8
  %19 = alloca ptr, align 8
  %20 = alloca [1024 x i8], align 16
  store ptr %0, ptr %9, align 8, !tbaa !3
  store i32 %1, ptr %10, align 4, !tbaa !15
  store i32 %2, ptr %11, align 4, !tbaa !15
  store ptr %3, ptr %12, align 8, !tbaa !8
  store i32 %4, ptr %13, align 4, !tbaa !15
  store ptr %5, ptr %14, align 8, !tbaa !19
  store ptr %6, ptr %15, align 8, !tbaa !21
  %21 = load ptr, ptr %9, align 8
  %22 = load ptr, ptr %15, align 8, !tbaa !21
  %23 = load i32, ptr %22, align 4, !tbaa !17
  %24 = call noundef signext i8 @_ZL9U_FAILURE10UErrorCode(i32 noundef %23)
  %25 = icmp ne i8 %24, 0
  br i1 %25, label %26, label %32

26:                                               ; preds = %7
  %27 = load i32, ptr %13, align 4, !tbaa !15
  %28 = icmp ne i32 %27, 0
  br i1 %28, label %29, label %31

29:                                               ; preds = %26
  %30 = load ptr, ptr %12, align 8, !tbaa !8
  store i8 0, ptr %30, align 1, !tbaa !12
  br label %31

31:                                               ; preds = %29, %26
  store i32 0, ptr %8, align 4
  br label %112

32:                                               ; preds = %7
  call void @llvm.lifetime.start.p0(i64 8, ptr %16) #9
  %33 = call noundef ptr @_ZNK6icu_7713UnicodeString13getArrayStartEv(ptr noundef nonnull align 8 dereferenceable(64) %21)
  %34 = load i32, ptr %10, align 4, !tbaa !15
  %35 = sext i32 %34 to i64
  %36 = getelementptr inbounds i16, ptr %33, i64 %35
  store ptr %36, ptr %16, align 8, !tbaa !22
  call void @llvm.lifetime.start.p0(i64 8, ptr %17) #9
  %37 = load ptr, ptr %16, align 8, !tbaa !22
  %38 = load i32, ptr %11, align 4, !tbaa !15
  %39 = sext i32 %38 to i64
  %40 = getelementptr inbounds i16, ptr %37, i64 %39
  store ptr %40, ptr %17, align 8, !tbaa !22
  call void @llvm.lifetime.start.p0(i64 8, ptr %18) #9
  %41 = load ptr, ptr %12, align 8, !tbaa !8
  store ptr %41, ptr %18, align 8, !tbaa !8
  call void @llvm.lifetime.start.p0(i64 8, ptr %19) #9
  %42 = load i32, ptr %13, align 4, !tbaa !15
  %43 = icmp eq i32 %42, 0
  br i1 %43, label %44, label %45

44:                                               ; preds = %32
  store ptr null, ptr %12, align 8, !tbaa !8
  store ptr null, ptr %19, align 8, !tbaa !8
  br label %69

45:                                               ; preds = %32
  %46 = load i32, ptr %13, align 4, !tbaa !15
  %47 = icmp eq i32 %46, -1
  br i1 %47, label %48, label %63

48:                                               ; preds = %45
  %49 = load ptr, ptr %12, align 8, !tbaa !8
  %50 = ptrtoint ptr %49 to i64
  %51 = add i64 %50, 2147483647
  %52 = load ptr, ptr %12, align 8, !tbaa !8
  %53 = ptrtoint ptr %52 to i64
  %54 = icmp ugt i64 %51, %53
  br i1 %54, label %55, label %59

55:                                               ; preds = %48
  %56 = load ptr, ptr %12, align 8, !tbaa !8
  %57 = ptrtoint ptr %56 to i64
  %58 = add i64 %57, 2147483647
  br label %60

59:                                               ; preds = %48
  br label %60

60:                                               ; preds = %59, %55
  %61 = phi i64 [ %58, %55 ], [ -1, %59 ]
  %62 = inttoptr i64 %61 to ptr
  store ptr %62, ptr %19, align 8, !tbaa !8
  store i32 2147483647, ptr %13, align 4, !tbaa !15
  br label %68

63:                                               ; preds = %45
  %64 = load ptr, ptr %12, align 8, !tbaa !8
  %65 = load i32, ptr %13, align 4, !tbaa !15
  %66 = sext i32 %65 to i64
  %67 = getelementptr inbounds i8, ptr %64, i64 %66
  store ptr %67, ptr %19, align 8, !tbaa !8
  br label %68

68:                                               ; preds = %63, %60
  br label %69

69:                                               ; preds = %68, %44
  %70 = load ptr, ptr %14, align 8, !tbaa !19
  %71 = load ptr, ptr %19, align 8, !tbaa !8
  %72 = load ptr, ptr %17, align 8, !tbaa !22
  %73 = load ptr, ptr %15, align 8, !tbaa !21
  call void @ucnv_fromUnicode_77(ptr noundef %70, ptr noundef %12, ptr noundef %71, ptr noundef %16, ptr noundef %72, ptr noundef null, i8 noundef signext 1, ptr noundef %73)
  %74 = load ptr, ptr %12, align 8, !tbaa !8
  %75 = load ptr, ptr %18, align 8, !tbaa !8
  %76 = ptrtoint ptr %74 to i64
  %77 = ptrtoint ptr %75 to i64
  %78 = sub i64 %76, %77
  %79 = trunc i64 %78 to i32
  store i32 %79, ptr %11, align 4, !tbaa !15
  %80 = load ptr, ptr %15, align 8, !tbaa !21
  %81 = load i32, ptr %80, align 4, !tbaa !17
  %82 = icmp eq i32 %81, 15
  br i1 %82, label %83, label %106

83:                                               ; preds = %69
  call void @llvm.lifetime.start.p0(i64 1024, ptr %20) #9
  %84 = getelementptr inbounds [1024 x i8], ptr %20, i64 0, i64 0
  %85 = getelementptr inbounds nuw i8, ptr %84, i64 1024
  store ptr %85, ptr %19, align 8, !tbaa !8
  br label %86

86:                                               ; preds = %101, %83
  %87 = getelementptr inbounds [1024 x i8], ptr %20, i64 0, i64 0
  store ptr %87, ptr %12, align 8, !tbaa !8
  %88 = load ptr, ptr %15, align 8, !tbaa !21
  store i32 0, ptr %88, align 4, !tbaa !17
  %89 = load ptr, ptr %14, align 8, !tbaa !19
  %90 = load ptr, ptr %19, align 8, !tbaa !8
  %91 = load ptr, ptr %17, align 8, !tbaa !22
  %92 = load ptr, ptr %15, align 8, !tbaa !21
  call void @ucnv_fromUnicode_77(ptr noundef %89, ptr noundef %12, ptr noundef %90, ptr noundef %16, ptr noundef %91, ptr noundef null, i8 noundef signext 1, ptr noundef %92)
  %93 = load ptr, ptr %12, align 8, !tbaa !8
  %94 = getelementptr inbounds [1024 x i8], ptr %20, i64 0, i64 0
  %95 = ptrtoint ptr %93 to i64
  %96 = ptrtoint ptr %94 to i64
  %97 = sub i64 %95, %96
  %98 = trunc i64 %97 to i32
  %99 = load i32, ptr %11, align 4, !tbaa !15
  %100 = add nsw i32 %99, %98
  store i32 %100, ptr %11, align 4, !tbaa !15
  br label %101

101:                                              ; preds = %86
  %102 = load ptr, ptr %15, align 8, !tbaa !21
  %103 = load i32, ptr %102, align 4, !tbaa !17
  %104 = icmp eq i32 %103, 15
  br i1 %104, label %86, label %105, !llvm.loop !28

105:                                              ; preds = %101
  call void @llvm.lifetime.end.p0(i64 1024, ptr %20) #9
  br label %106

106:                                              ; preds = %105, %69
  %107 = load ptr, ptr %18, align 8, !tbaa !8
  %108 = load i32, ptr %13, align 4, !tbaa !15
  %109 = load i32, ptr %11, align 4, !tbaa !15
  %110 = load ptr, ptr %15, align 8, !tbaa !21
  %111 = call i32 @u_terminateChars_77(ptr noundef %107, i32 noundef %108, i32 noundef %109, ptr noundef %110)
  store i32 %111, ptr %8, align 4
  call void @llvm.lifetime.end.p0(i64 8, ptr %19) #9
  call void @llvm.lifetime.end.p0(i64 8, ptr %18) #9
  call void @llvm.lifetime.end.p0(i64 8, ptr %17) #9
  call void @llvm.lifetime.end.p0(i64 8, ptr %16) #9
  br label %112

112:                                              ; preds = %106, %31
  %113 = load i32, ptr %8, align 4
  ret i32 %113
}