; Function Attrs: mustprogress uwtable
define noundef i32 @_ZNK6icu_7713UnicodeString9doExtractEiiPciP10UConverterR10UErrorCode(ptr noundef nonnull align 8 dereferenceable(64) %0, i32 noundef %1, i32 noundef %2, ptr noundef %3, i32 noundef %4, ptr noundef %5, ptr noundef nonnull align 4 dereferenceable(4) %6) local_unnamed_addr #0 align 2 {
  %8 = alloca ptr, align 8
  %9 = alloca ptr, align 8
  %10 = alloca [1024 x i8], align 16
  store ptr %3, ptr %8, align 8, !tbaa !10
  %11 = load i32, ptr %6, align 4, !tbaa !8
  %12 = icmp slt i32 %11, 1
  br i1 %12, label %15, label %13

13:                                               ; preds = %7
  %.not30 = icmp eq i32 %4, 0
  br i1 %.not30, label %59, label %14

14:                                               ; preds = %13
  store i8 0, ptr %3, align 1, !tbaa !6
  br label %59

15:                                               ; preds = %7
  call void @llvm.lifetime.start.p0(i64 8, ptr nonnull %9) #7
  %16 = getelementptr inbounds nuw i8, ptr %0, i64 8
  %17 = load i16, ptr %16, align 8, !tbaa !6
  %18 = and i16 %17, 2
  %.not.i = icmp eq i16 %18, 0
  %19 = getelementptr inbounds nuw i8, ptr %0, i64 10
  %20 = getelementptr inbounds nuw i8, ptr %0, i64 24
  %21 = load ptr, ptr %20, align 8
  %22 = select i1 %.not.i, ptr %21, ptr %19
  %23 = sext i32 %1 to i64
  %24 = getelementptr inbounds i16, ptr %22, i64 %23
  store ptr %24, ptr %9, align 8, !tbaa !13
  %25 = sext i32 %2 to i64
  %26 = getelementptr inbounds i16, ptr %24, i64 %25
  switch i32 %4, label %34 [
    i32 0, label %27
    i32 -1, label %28
  ]

27:                                               ; preds = %15
  store ptr null, ptr %8, align 8, !tbaa !10
  br label %37

28:                                               ; preds = %15
  %29 = ptrtoint ptr %3 to i64
  %30 = add i64 %29, 2147483647
  %31 = icmp ult ptr %3, inttoptr (i64 -2147483647 to ptr)
  %32 = inttoptr i64 %30 to ptr
  %33 = select i1 %31, ptr %32, ptr inttoptr (i64 -1 to ptr)
  br label %37

34:                                               ; preds = %15
  %35 = sext i32 %4 to i64
  %36 = getelementptr inbounds i8, ptr %3, i64 %35
  br label %37

37:                                               ; preds = %28, %34, %27
  %.027 = phi i32 [ 0, %27 ], [ 2147483647, %28 ], [ %4, %34 ]
  %.0 = phi ptr [ null, %27 ], [ %33, %28 ], [ %36, %34 ]
  call void @ucnv_fromUnicode_77(ptr noundef %5, ptr noundef nonnull %8, ptr noundef %.0, ptr noundef nonnull %9, ptr noundef %26, ptr noundef null, i8 noundef signext 1, ptr noundef nonnull %6)
  %38 = load ptr, ptr %8, align 8, !tbaa !10
  %39 = ptrtoint ptr %38 to i64
  %40 = ptrtoint ptr %3 to i64
  %41 = sub i64 %39, %40
  %42 = trunc i64 %41 to i32
  %43 = load i32, ptr %6, align 4, !tbaa !8
  %44 = icmp eq i32 %43, 15
  br i1 %44, label %45, label %57

45:                                               ; preds = %37
  call void @llvm.lifetime.start.p0(i64 1024, ptr nonnull %10) #7
  %46 = getelementptr inbounds nuw i8, ptr %10, i64 1024
  %47 = ptrtoint ptr %10 to i64
  br label %48

48:                                               ; preds = %48, %45
  %.1 = phi i32 [ %42, %45 ], [ %53, %48 ]
  store ptr %10, ptr %8, align 8, !tbaa !10
  store i32 0, ptr %6, align 4, !tbaa !8
  call void @ucnv_fromUnicode_77(ptr noundef %5, ptr noundef nonnull %8, ptr noundef nonnull %46, ptr noundef nonnull %9, ptr noundef %26, ptr noundef null, i8 noundef signext 1, ptr noundef nonnull %6)
  %49 = load ptr, ptr %8, align 8, !tbaa !10
  %50 = ptrtoint ptr %49 to i64
  %51 = sub i64 %50, %47
  %52 = trunc i64 %51 to i32
  %53 = add nsw i32 %.1, %52
  %54 = load i32, ptr %6, align 4, !tbaa !8
  %55 = icmp eq i32 %54, 15
  br i1 %55, label %48, label %56, !llvm.loop !17

56:                                               ; preds = %48
  call void @llvm.lifetime.end.p0(i64 1024, ptr nonnull %10) #7
  br label %57

57:                                               ; preds = %56, %37
  %.026 = phi i32 [ %53, %56 ], [ %42, %37 ]
  %58 = call i32 @u_terminateChars_77(ptr noundef %3, i32 noundef %.027, i32 noundef %.026, ptr noundef nonnull %6)
  call void @llvm.lifetime.end.p0(i64 8, ptr nonnull %9) #7
  br label %59

59:                                               ; preds = %13, %14, %57
  %.025 = phi i32 [ %58, %57 ], [ 0, %14 ], [ 0, %13 ]
  ret i32 %.025
}